TN:
SF:/mnt/c/л3/Lab3OOP/Checker/Checker.hpp
FN:25,25,_ZN7CheckerIiEC2Ev
FN:27,28,_ZN7CheckerIiEC2ERKS0_
FN:30,32,_ZN7CheckerIiE16addCheckFunctionESt8functionIFvR7StorageP10IContainer17ContainerPositionIiEEE
FN:43,47,_ZNK7CheckerIiE11applyChecksER7StorageP10IContainer17ContainerPositionIiE
FNDA:22,_ZN7CheckerIiEC2Ev
FNDA:10,_ZN7CheckerIiEC2ERKS0_
FNDA:29,_ZN7CheckerIiE16addCheckFunctionESt8functionIFvR7StorageP10IContainer17ContainerPositionIiEEE
FNDA:176,_ZNK7CheckerIiE11applyChecksER7StorageP10IContainer17ContainerPositionIiE
FNF:4
FNH:4
DA:25,22
DA:27,10
DA:28,10
DA:30,29
DA:31,29
DA:32,29
DA:43,176
DA:44,324
DA:45,158
DA:47,166
LF:10
LH:10
end_of_record
TN:
SF:/mnt/c/л3/Lab3OOP/Octree/ContainerPosition.hpp
FN:12,12,_ZN17ContainerPositionIiEC2Ev
FN:18,23,_ZNK17ContainerPositionIiEeqERKS0_
FNDA:0,_ZN17ContainerPositionIiEC2Ev
FNDA:84,_ZNK17ContainerPositionIiEeqERKS0_
FNF:2
FNH:1
DA:12,0
DA:18,84
DA:19,190
DA:20,159
DA:21,159
DA:22,190
LF:6
LH:5
end_of_record
TN:
SF:/mnt/c/л3/Lab3OOP/Octree/Octree.hpp
FN:114,118,_ZN6OctreeIiP10IContainer17ContainerPositionIiEE8iteratorC2EPNS4_4NodeE
FN:120,122,_ZN6OctreeIiP10IContainer17ContainerPositionIiEE8iteratordeEv
FN:125,135,_ZN6OctreeIiP10IContainer17ContainerPositionIiEE8iteratorppEv
FN:138,140,_ZNK6OctreeIiP10IContainer17ContainerPositionIiEE8iteratorneERKS5_
FN:147,150,_ZN6OctreeIiP10IContainer17ContainerPositionIiEEC2ER11BoundingBoxIiEi
FN:153,155,_ZN6OctreeIiP10IContainer17ContainerPositionIiEED2Ev
FN:163,165,_ZN6OctreeIiP10IContainer17ContainerPositionIiEE5beginEv
FN:167,169,_ZN6OctreeIiP10IContainer17ContainerPositionIiEE3endEv
FN:172,181,_ZN6OctreeIiP10IContainer17ContainerPositionIiEE6insertES1_RS3_PNS4_4NodeE
FN:184,264,_ZN6OctreeIiP10IContainer17ContainerPositionIiEE5splitEPNS4_4NodeE
FN:267,270,_ZN6OctreeIiP10IContainer17ContainerPositionIiEE5CloneEv
FN:274,282,_ZN6OctreeIiP10IContainer17ContainerPositionIiEE6removeENSt7__cxx1112basic_stringIcSt11char_traitsIcESaIcEEE
FN:285,289,_ZN6OctreeIiP10IContainer17ContainerPositionIiEE6searchENSt7__cxx1112basic_stringIcSt11char_traitsIcESaIcEEE
FN:292,296,_ZN6OctreeIiP10IContainer17ContainerPositionIiEE5findIENSt7__cxx1112basic_stringIcSt11char_traitsIcESaIcEEE
FN:299,303,_ZN6OctreeIiP10IContainer17ContainerPositionIiEE11searchDepthEv
FN:306,312,_ZN6OctreeIiP10IContainer17ContainerPositionIiEE12SearchInsertES1_S3_
FN:320,323,_ZN6OctreeIiP10IContainer17ContainerPositionIiEE7getMinXERS3_
FN:326,329,_ZN6OctreeIiP10IContainer17ContainerPositionIiEE7getMaxXERS3_
FN:332,335,_ZN6OctreeIiP10IContainer17ContainerPositionIiEE7getMinYERS3_
FN:338,341,_ZN6OctreeIiP10IContainer17ContainerPositionIiEE7getMaxYERS3_
FN:344,347,_ZN6OctreeIiP10IContainer17ContainerPositionIiEE7getMinZERS3_
FN:350,353,_ZN6OctreeIiP10IContainer17ContainerPositionIiEE7getMaxZERS3_
FN:356,359,_ZN6OctreeIiP10IContainer17ContainerPositionIiEE7getMinXERKS3_
FN:361,364,_ZN6OctreeIiP10IContainer17ContainerPositionIiEE7getMaxXERKS3_
FN:367,370,_ZN6OctreeIiP10IContainer17ContainerPositionIiEE7getMinYERKS3_
FN:373,376,_ZN6OctreeIiP10IContainer17ContainerPositionIiEE7getMaxYERKS3_
FN:380,383,_ZN6OctreeIiP10IContainer17ContainerPositionIiEE7getMinZERKS3_
FN:386,389,_ZN6OctreeIiP10IContainer17ContainerPositionIiEE7getMaxZERKS3_
FN:397,407,_ZN6OctreeIiP10IContainer17ContainerPositionIiEE16pointincontainerER5PointIiERS3_
FN:413,423,_ZN6OctreeIiP10IContainer17ContainerPositionIiEE14searchUnderOctEPNS4_4NodeERSt6vectorISt4pairIS3_S1_ESaIS9_EE
FN:426,443,_ZN6OctreeIiP10IContainer17ContainerPositionIiEE5findIENSt7__cxx1112basic_stringIcSt11char_traitsIcESaIcEEEPNS4_4NodeEPSt4pairIS3_S1_E
FN:446,456,_ZN6OctreeIiP10IContainer17ContainerPositionIiEE11searchDepthEPNS4_4NodeERSt6vectorISt4pairIS3_S1_ESaIS9_EE
FN:459,492,_ZN6OctreeIiP10IContainer17ContainerPositionIiEE12SearchInsertES1_S3_PNS4_4NodeEPS6_RSt6vectorISt4pairIS3_S1_ESaISA_EERb
FN:495,512,_ZN6OctreeIiP10IContainer17ContainerPositionIiEE7searchRENSt7__cxx1112basic_stringIcSt11char_traitsIcESaIcEEEPNS4_4NodeEPSC_
FN:515,538,_ZN6OctreeIiP10IContainer17ContainerPositionIiEE7removeRENSt7__cxx1112basic_stringIcSt11char_traitsIcESaIcEEEPNS4_4NodeERb
FN:541,562,_ZNK6OctreeIiP10IContainer17ContainerPositionIiEE13ContainEntityES3_S3_
FN:55,55,_ZN11BoundingBoxIiEC2ERK5PointIiES4_
FN:565,572,_ZNK6OctreeIiP10IContainer17ContainerPositionIiEE14checkCollisionES1_S3_St6vectorISt4pairIS3_S1_ESaIS7_EE
FN:57,59,_ZNK11BoundingBoxIiE8containsER5PointIiE
FN:586,588,_ZNK6OctreeIiP10IContainer17ContainerPositionIiEE6numberB5cxx11ERK5PointIiE
FN:80,80,_ZN6OctreeIiP10IContainer17ContainerPositionIiEE4NodeC2ER11BoundingBoxIiEi
FN:81,88,_ZN6OctreeIiP10IContainer17ContainerPositionIiEE4NodeD2Ev
FN:90,92,_ZNK6OctreeIiP10IContainer17ContainerPositionIiEE4Node6isLeafEv
FNDA:0,_ZN6OctreeIiP10IContainer17ContainerPositionIiEE8iteratorC2EPNS4_4NodeE
FNDA:0,_ZN6OctreeIiP10IContainer17ContainerPositionIiEE8iteratordeEv
FNDA:0,_ZN6OctreeIiP10IContainer17ContainerPositionIiEE8iteratorppEv
FNDA:0,_ZNK6OctreeIiP10IContainer17ContainerPositionIiEE8iteratorneERKS5_
FNDA:24,_ZN6OctreeIiP10IContainer17ContainerPositionIiEEC2ER11BoundingBoxIiEi
FNDA:0,_ZN6OctreeIiP10IContainer17ContainerPositionIiEED2Ev
FNDA:0,_ZN6OctreeIiP10IContainer17ContainerPositionIiEE5beginEv
FNDA:0,_ZN6OctreeIiP10IContainer17ContainerPositionIiEE3endEv
FNDA:170,_ZN6OctreeIiP10IContainer17ContainerPositionIiEE6insertES1_RS3_PNS4_4NodeE
FNDA:29,_ZN6OctreeIiP10IContainer17ContainerPositionIiEE5splitEPNS4_4NodeE
FNDA:10,_ZN6OctreeIiP10IContainer17ContainerPositionIiEE5CloneEv
FNDA:12,_ZN6OctreeIiP10IContainer17ContainerPositionIiEE6removeENSt7__cxx1112basic_stringIcSt11char_traitsIcESaIcEEE
FNDA:15,_ZN6OctreeIiP10IContainer17ContainerPositionIiEE6searchENSt7__cxx1112basic_stringIcSt11char_traitsIcESaIcEEE
FNDA:0,_ZN6OctreeIiP10IContainer17ContainerPositionIiEE5findIENSt7__cxx1112basic_stringIcSt11char_traitsIcESaIcEEE
FNDA:76,_ZN6OctreeIiP10IContainer17ContainerPositionIiEE11searchDepthEv
FNDA:5805,_ZN6OctreeIiP10IContainer17ContainerPositionIiEE12SearchInsertES1_S3_
FNDA:24836,_ZN6OctreeIiP10IContainer17ContainerPositionIiEE7getMinXERS3_
FNDA:23141,_ZN6OctreeIiP10IContainer17ContainerPositionIiEE7getMaxXERS3_
FNDA:22615,_ZN6OctreeIiP10IContainer17ContainerPositionIiEE7getMinYERS3_
FNDA:22471,_ZN6OctreeIiP10IContainer17ContainerPositionIiEE7getMaxYERS3_
FNDA:22322,_ZN6OctreeIiP10IContainer17ContainerPositionIiEE7getMinZERS3_
FNDA:22259,_ZN6OctreeIiP10IContainer17ContainerPositionIiEE7getMaxZERS3_
FNDA:175,_ZN6OctreeIiP10IContainer17ContainerPositionIiEE7getMinXERKS3_
FNDA:134,_ZN6OctreeIiP10IContainer17ContainerPositionIiEE7getMaxXERKS3_
FNDA:117,_ZN6OctreeIiP10IContainer17ContainerPositionIiEE7getMinYERKS3_
FNDA:105,_ZN6OctreeIiP10IContainer17ContainerPositionIiEE7getMaxYERKS3_
FNDA:26,_ZN6OctreeIiP10IContainer17ContainerPositionIiEE7getMinZERKS3_
FNDA:72,_ZN6OctreeIiP10IContainer17ContainerPositionIiEE7getMaxZERKS3_
FNDA:117,_ZN6OctreeIiP10IContainer17ContainerPositionIiEE16pointincontainerER5PointIiERS3_
FNDA:27294,_ZN6OctreeIiP10IContainer17ContainerPositionIiEE14searchUnderOctEPNS4_4NodeERSt6vectorISt4pairIS3_S1_ESaIS9_EE
FNDA:0,_ZN6OctreeIiP10IContainer17ContainerPositionIiEE5findIENSt7__cxx1112basic_stringIcSt11char_traitsIcESaIcEEEPNS4_4NodeEPSt4pairIS3_S1_E
FNDA:14508,_ZN6OctreeIiP10IContainer17ContainerPositionIiEE11searchDepthEPNS4_4NodeERSt6vectorISt4pairIS3_S1_ESaIS9_EE
FNDA:6716,_ZN6OctreeIiP10IContainer17ContainerPositionIiEE12SearchInsertES1_S3_PNS4_4NodeEPS6_RSt6vectorISt4pairIS3_S1_ESaISA_EERb
FNDA:367,_ZN6OctreeIiP10IContainer17ContainerPositionIiEE7searchRENSt7__cxx1112basic_stringIcSt11char_traitsIcESaIcEEEPNS4_4NodeEPSC_
FNDA:228,_ZN6OctreeIiP10IContainer17ContainerPositionIiEE7removeRENSt7__cxx1112basic_stringIcSt11char_traitsIcESaIcEEEPNS4_4NodeERb
FNDA:13602,_ZNK6OctreeIiP10IContainer17ContainerPositionIiEE13ContainEntityES3_S3_
FNDA:246,_ZN11BoundingBoxIiEC2ERK5PointIiES4_
FNDA:2685,_ZNK6OctreeIiP10IContainer17ContainerPositionIiEE14checkCollisionES1_S3_St6vectorISt4pairIS3_S1_ESaIS7_EE
FNDA:29882,_ZNK11BoundingBoxIiE8containsER5PointIiE
FNDA:0,_ZNK6OctreeIiP10IContainer17ContainerPositionIiEE6numberB5cxx11ERK5PointIiE
FNDA:256,_ZN6OctreeIiP10IContainer17ContainerPositionIiEE4NodeC2ER11BoundingBoxIiEi
FNDA:0,_ZN6OctreeIiP10IContainer17ContainerPositionIiEE4NodeD2Ev
FNDA:0,_ZNK6OctreeIiP10IContainer17ContainerPositionIiEE4Node6isLeafEv
FNF:43
FNH:31
DA:55,246
DA:57,29882
DA:58,29882
DA:80,256
DA:81,0
DA:82,0
DA:83,0
DA:85,0
DA:86,0
DA:88,0
DA:90,0
DA:91,0
DA:114,0
DA:115,0
DA:116,0
DA:118,0
DA:120,0
DA:121,0
DA:125,0
DA:126,0
DA:127,0
DA:128,0
DA:129,0
DA:130,0
DA:131,0
DA:134,0
DA:138,0
DA:139,0
DA:147,24
DA:148,24
DA:149,24
DA:150,24
DA:153,0
DA:154,0
DA:155,0
DA:163,0
DA:164,0
DA:167,0
DA:168,0
DA:172,170
DA:173,170
DA:174,0
DA:176,170
DA:177,170
DA:178,29
DA:180,170
DA:184,29
DA:185,29
DA:186,29
DA:188,29
DA:189,29
DA:190,29
DA:192,29
DA:193,29
DA:194,29
DA:195,29
DA:196,29
DA:199,29
DA:200,29
DA:201,29
DA:202,29
DA:203,29
DA:206,29
DA:207,29
DA:208,29
DA:209,29
DA:210,29
DA:213,29
DA:214,29
DA:215,29
DA:216,29
DA:217,29
DA:220,29
DA:221,29
DA:222,29
DA:223,29
DA:224,29
DA:227,29
DA:228,29
DA:229,29
DA:230,29
DA:231,29
DA:234,29
DA:235,29
DA:236,29
DA:237,29
DA:238,29
DA:241,29
DA:242,29
DA:243,29
DA:244,29
DA:245,29
DA:248,66
DA:249,78
DA:250,113
DA:251,75
DA:252,71
DA:253,68
DA:254,68
DA:255,68
DA:256,147
DA:257,34
DA:258,34
DA:259,34
DA:260,34
DA:264,29
DA:267,10
DA:268,10
DA:269,10
DA:274,12
DA:275,12
DA:276,12
DA:277,12
DA:278,0
DA:280,12
DA:281,12
DA:285,15
DA:286,15
DA:287,15
DA:288,15
DA:292,0
DA:293,0
DA:294,0
DA:295,0
DA:299,76
DA:300,76
DA:301,76
DA:302,76
DA:303,0
DA:306,5805
DA:307,5805
DA:308,5805
DA:309,5805
DA:310,5765
DA:311,5791
DA:312,5792
DA:320,24836
DA:322,24836
DA:326,23141
DA:328,23141
DA:332,22615
DA:334,22615
DA:338,22471
DA:340,22471
DA:344,22322
DA:346,22322
DA:350,22259
DA:352,22259
DA:356,175
DA:358,175
DA:361,134
DA:363,134
DA:367,117
DA:369,117
DA:373,105
DA:375,105
DA:380,26
DA:382,26
DA:386,72
DA:388,72
DA:397,117
DA:400,117
DA:401,117
DA:402,117
DA:403,117
DA:404,117
DA:405,117
DA:406,117
DA:413,27294
DA:414,27294
DA:415,24332
DA:417,2962
DA:418,2627
DA:420,27850
DA:421,24747
DA:426,0
DA:427,0
DA:428,0
DA:430,0
DA:431,0
DA:432,0
DA:433,0
DA:434,0
DA:438,0
DA:439,0
DA:440,0
DA:446,14508
DA:447,14508
DA:448,12704
DA:450,1804
DA:451,184
DA:453,16236
DA:454,14432
DA:459,6716
DA:460,6716
DA:461,0
DA:463,12608
DA:464,3130
DA:465,2854
DA:466,12618
DA:467,3969
DA:469,2793
DA:470,2664
DA:472,2765
DA:473,1080
DA:474,960
DA:477,2764
DA:479,2663
DA:481,2686
DA:482,176
DA:483,176
DA:485,2521
DA:486,2521
DA:488,101
DA:489,60
DA:491,41
DA:495,367
DA:496,367
DA:497,0
DA:499,367
DA:500,94
DA:501,60
DA:502,12
DA:503,12
DA:507,355
DA:508,396
DA:509,352
DA:515,228
DA:516,228
DA:517,0
DA:519,228
DA:520,68
DA:522,160
DA:523,59
DA:524,40
DA:525,12
DA:526,12
DA:527,12
DA:528,12
DA:532,148
DA:533,243
DA:534,216
DA:541,13602
DA:543,13602
DA:544,12586
DA:545,12276
DA:546,12225
DA:547,12228
DA:548,12227
DA:551,12281
DA:552,12290
DA:553,12236
DA:554,12250
DA:555,12274
DA:556,12241
DA:559,9888
DA:560,25134
DA:561,15246
DA:565,2685
DA:566,12923
DA:567,12805
DA:568,2455
DA:571,176
DA:586,0
DA:587,0
LF:265
LH:211
end_of_record
TN:
SF:/mnt/c/л3/Lab3OOP/Octree/Point.hpp
FN:17,17,_ZN5PointIiEC2Eiii
FN:18,18,_ZN5PointIiEC2Ev
FN:9,11,_ZNK5PointIiEeqERKS0_
FNDA:554,_ZN5PointIiEC2Eiii
FNDA:0,_ZN5PointIiEC2Ev
FNDA:455,_ZNK5PointIiEeqERKS0_
FNF:3
FNH:2
DA:9,455
DA:10,455
DA:17,554
DA:18,0
LF:4
LH:3
end_of_record
TN:
SF:/mnt/c/л3/Lab3OOP/Storage/Storage.cpp
FN:105,120,_ZN7Storage7getSizeEiii
FN:125,167,_ZN7Storage26calculateContainerPositionEiiiiii
FN:13,24,_ZN7Storage14calculateDepthEv
FN:14,21,_ZZN7Storage14calculateDepthEvENKUliE_clEi
FN:170,193,_ZN7Storage20searchUnderContainerER17ContainerPositionIiE
FN:196,219,_ZN7Storage20searchUpperContainerER17ContainerPositionIiE
FN:223,231,_ZN7Storage13calculatemassESt6vectorISt4pairI17ContainerPositionIiEP10IContainerESaIS6_EEm
FN:234,259,_ZN7Storage12checkSupportER17ContainerPositionIiESt6vectorISt4pairIS1_P10IContainerESaIS7_EE
FN:261,273,_ZN7Storage12addContainerEP10IContaineriii
FN:27,29,_ZN7Storage24addExternalCheckFunctionERKSt8functionIFvRS_P10IContainer17ContainerPositionIiEEE
FN:278,282,_ZNK7Storage19getInfoAboutStorageB5cxx11Ev
FN:286,307,_ZN7Storage7isNoTopERK17ContainerPositionIiE
FN:311,341,_ZN7Storage13moveContainerENSt7__cxx1112basic_stringIcSt11char_traitsIcESaIcEEEiii
FN:32,44,_ZN7Storage5checkEv
FN:345,385,_ZN7Storage15rotateContainerENSt7__cxx1112basic_stringIcSt11char_traitsIcESaIcEEEi
FN:388,409,_ZN7Storage10multitreadEP10IContaineriii
FN:411,428,_ZN7Storage13addContainerREP10IContainerii
FN:430,445,_ZN7Storage12addContainerB5cxx11EP10IContainer
FN:448,507,_ZN7Storage15removeContainerENSt7__cxx1112basic_stringIcSt11char_traitsIcESaIcEEE
FN:47,61,_ZN7StorageC2Eiiiid
FN:510,524,_ZNK7Storage7getInfoB5cxx11Ev
FN:527,543,_ZN7Storage9howContaiEP10IContainerRSt6vectorImSaImEEm
FN:546,556,_ZN7Storage12howContainerEP10IContainer
FN:55,57,_ZZN7StorageC4EiiiidENKUlRS_P10IContainer17ContainerPositionIiEE_clES0_S2_S4_
FN:555,555,_ZZN7Storage12howContainerEP10IContainerENKUliiE_clEii
FN:559,569,_ZNK7Storage17getListContainersB5cxx11Ev
FN:572,579,_ZN7Storage16checkTemperatureERS_P10IContainer17ContainerPositionIiE
FN:58,60,_ZZN7StorageC4EiiiidENKUlRS_P10IContainer17ContainerPositionIiEE0_clES0_S2_S4_
FN:582,598,_ZN7Storage13checkPressureERS_P10IContainer17ContainerPositionIiE
FN:64,66,_ZN7Storage15comparePositionERSt4pairI17ContainerPositionIiEP10IContainerES6_
FN:69,71,_ZN7Storage22comparePositionReverseERSt4pairI17ContainerPositionIiEP10IContainerES6_
FN:74,90,_ZN7StorageaSERKS_
FN:93,102,_ZN7StorageC2ERKS_
FNDA:3,_ZN7Storage7getSizeEiii
FNDA:5776,_ZN7Storage26calculateContainerPositionEiiiiii
FNDA:14,_ZN7Storage14calculateDepthEv
FNDA:42,_ZZN7Storage14calculateDepthEvENKUliE_clEi
FNDA:41,_ZN7Storage20searchUnderContainerER17ContainerPositionIiE
FNDA:5,_ZN7Storage20searchUpperContainerER17ContainerPositionIiE
FNDA:24,_ZN7Storage13calculatemassESt6vectorISt4pairI17ContainerPositionIiEP10IContainerESaIS6_EEm
FNDA:40,_ZN7Storage12checkSupportER17ContainerPositionIiESt6vectorISt4pairIS1_P10IContainerESaIS7_EE
FNDA:84,_ZN7Storage12addContainerEP10IContaineriii
FNDA:1,_ZN7Storage24addExternalCheckFunctionERKSt8functionIFvRS_P10IContainer17ContainerPositionIiEEE
FNDA:4,_ZNK7Storage19getInfoAboutStorageB5cxx11Ev
FNDA:6,_ZN7Storage7isNoTopERK17ContainerPositionIiE
FNDA:5,_ZN7Storage13moveContainerENSt7__cxx1112basic_stringIcSt11char_traitsIcESaIcEEEiii
FNDA:0,_ZN7Storage5checkEv
FNDA:5,_ZN7Storage15rotateContainerENSt7__cxx1112basic_stringIcSt11char_traitsIcESaIcEEEi
FNDA:5710,_ZN7Storage10multitreadEP10IContaineriii
FNDA:107,_ZN7Storage13addContainerREP10IContainerii
FNDA:98,_ZN7Storage12addContainerB5cxx11EP10IContainer
FNDA:6,_ZN7Storage15removeContainerENSt7__cxx1112basic_stringIcSt11char_traitsIcESaIcEEE
FNDA:14,_ZN7StorageC2Eiiiid
FNDA:9,_ZNK7Storage7getInfoB5cxx11Ev
FNDA:6,_ZN7Storage9howContaiEP10IContainerRSt6vectorImSaImEEm
FNDA:1,_ZN7Storage12howContainerEP10IContainer
FNDA:80,_ZZN7StorageC4EiiiidENKUlRS_P10IContainer17ContainerPositionIiEE_clES0_S2_S4_
FNDA:6,_ZZN7Storage12howContainerEP10IContainerENKUliiE_clEii
FNDA:3,_ZNK7Storage17getListContainersB5cxx11Ev
FNDA:80,_ZN7Storage16checkTemperatureERS_P10IContainer17ContainerPositionIiE
FNDA:78,_ZZN7StorageC4EiiiidENKUlRS_P10IContainer17ContainerPositionIiEE0_clES0_S2_S4_
FNDA:78,_ZN7Storage13checkPressureERS_P10IContainer17ContainerPositionIiE
FNDA:95,_ZN7Storage15comparePositionERSt4pairI17ContainerPositionIiEP10IContainerES6_
FNDA:4,_ZN7Storage22comparePositionReverseERSt4pairI17ContainerPositionIiEP10IContainerES6_
FNDA:2,_ZN7StorageaSERKS_
FNDA:8,_ZN7StorageC2ERKS_
FNF:33
FNH:32
DA:13,14
DA:14,42
DA:15,42
DA:16,113
DA:17,71
DA:18,71
DA:20,42
DA:22,14
DA:27,1
DA:28,1
DA:29,1
DA:32,0
DA:33,0
DA:34,0
DA:35,0
DA:36,0
DA:38,0
DA:39,0
DA:40,0
DA:43,0
DA:44,0
DA:47,14
DA:48,14
DA:49,14
DA:50,14
DA:51,14
DA:52,14
DA:53,14
DA:54,14
DA:55,14
DA:56,80
DA:57,78
DA:58,14
DA:59,78
DA:60,70
DA:61,14
DA:64,95
DA:65,95
DA:69,4
DA:70,4
DA:74,2
DA:75,2
DA:76,2
DA:77,2
DA:78,2
DA:79,2
DA:80,2
DA:81,2
DA:82,2
DA:83,2
DA:84,12
DA:85,10
DA:87,2
DA:88,2
DA:89,2
DA:93,8
DA:94,8
DA:95,8
DA:96,8
DA:97,8
DA:98,20
DA:99,12
DA:101,8
DA:102,8
DA:105,3
DA:106,3
DA:107,1
DA:109,2
DA:110,2
DA:111,2
DA:112,12
DA:113,10
DA:115,12
DA:116,10
DA:118,2
DA:119,2
DA:120,2
DA:125,5776
DA:126,5776
DA:128,5748
DA:129,5748
DA:130,5748
DA:133,5748
DA:134,5748
DA:135,5748
DA:138,5748
DA:139,5748
DA:140,5748
DA:143,5748
DA:144,5748
DA:145,5748
DA:148,5748
DA:149,5748
DA:150,5748
DA:153,5748
DA:154,5748
DA:155,5748
DA:158,5748
DA:159,5748
DA:160,5748
DA:163,5748
DA:164,5748
DA:165,5748
DA:166,5748
DA:170,41
DA:171,41
DA:172,41
DA:173,41
DA:174,41
DA:175,41
DA:176,41
DA:177,41
DA:178,41
DA:179,41
DA:180,41
DA:181,163
DA:182,122
DA:184,213
DA:185,279
DA:186,66
DA:187,64
DA:188,64
DA:191,41
DA:192,82
DA:193,41
DA:196,5
DA:197,5
DA:198,5
DA:199,5
DA:200,5
DA:201,5
DA:202,5
DA:203,5
DA:204,5
DA:205,5
DA:206,5
DA:207,34
DA:208,29
DA:210,54
DA:211,72
DA:212,18
DA:213,7
DA:214,7
DA:217,5
DA:218,10
DA:219,5
DA:223,24
DA:224,24
DA:225,43
DA:226,19
DA:227,19
DA:230,24
DA:234,40
DA:235,40
DA:236,40
DA:237,40
DA:238,40
DA:239,40
DA:241,45
DA:242,42
DA:243,37
DA:245,42
DA:246,3
DA:248,39
DA:249,34
DA:251,39
DA:252,31
DA:254,39
DA:255,34
DA:258,3
DA:261,84
DA:262,84
DA:263,1
DA:265,83
DA:266,83
DA:267,83
DA:268,3
DA:270,80
DA:271,74
DA:272,74
DA:273,74
DA:278,4
DA:279,8
DA:280,12
DA:281,4
DA:286,6
DA:287,6
DA:288,6
DA:289,6
DA:290,6
DA:291,6
DA:292,6
DA:293,6
DA:294,6
DA:295,6
DA:297,22
DA:298,18
DA:299,30
DA:300,38
DA:301,8
DA:302,2
DA:306,4
DA:307,6
DA:311,5
DA:312,5
DA:313,1
DA:315,4
DA:316,4
DA:317,1
DA:319,3
DA:320,7
DA:321,7
DA:322,3
DA:323,3
DA:324,3
DA:325,3
DA:328,3
DA:329,1
DA:330,1
DA:331,1
DA:334,2
DA:335,1
DA:336,1
DA:337,1
DA:338,1
DA:339,1
DA:340,1
DA:341,1
DA:345,5
DA:346,5
DA:347,5
DA:348,1
DA:350,4
DA:351,5
DA:352,5
DA:353,4
DA:354,4
DA:355,4
DA:356,4
DA:359,4
DA:360,4
DA:361,1
DA:362,1
DA:363,1
DA:365,3
DA:366,3
DA:367,1
DA:368,1
DA:369,1
DA:371,2
DA:372,2
DA:373,2
DA:374,2
DA:376,2
DA:377,1
DA:378,1
DA:379,1
DA:380,1
DA:381,1
DA:382,1
DA:383,1
DA:384,1
DA:385,1
DA:388,5710
DA:389,5710
DA:390,5698
DA:391,5683
DA:392,5730
DA:393,5705
DA:394,5718
DA:395,5623
DA:397,95
DA:398,92
DA:399,92
DA:400,91
DA:401,91
DA:402,91
DA:403,91
DA:405,1
DA:406,1
DA:407,1
DA:409,5725
DA:411,107
DA:412,107
DA:413,327
DA:414,3104
DA:415,8527
DA:417,5741
DA:418,9
DA:420,5716
DA:421,91
DA:422,5645
DA:423,5650
DA:427,9
DA:428,109
DA:430,98
DA:431,98
DA:432,205
DA:433,107
DA:434,107
DA:436,205
DA:437,107
DA:439,98
DA:440,14
DA:442,91
DA:443,91
DA:445,98
DA:448,6
DA:449,6
DA:450,6
DA:451,6
DA:452,1
DA:454,5
DA:455,5
DA:457,1
DA:460,4
DA:461,4
DA:462,4
DA:468,11
DA:469,7
DA:470,7
DA:476,4
DA:477,10
DA:478,7
DA:479,7
DA:482,7
DA:483,1
DA:484,1
DA:485,0
DA:487,1
DA:488,2
DA:489,1
DA:491,1
DA:496,6
DA:500,7
DA:502,9
DA:503,6
DA:505,3
DA:506,5
DA:507,5
DA:510,9
DA:511,9
DA:512,9
DA:513,9
DA:514,0
DA:516,60
DA:517,51
DA:518,102
DA:519,204
DA:520,153
DA:523,9
DA:524,9
DA:527,6
DA:528,6
DA:529,6
DA:530,6
DA:533,90
DA:534,84
DA:535,84
DA:536,84
DA:538,6
DA:539,6
DA:542,6
DA:543,6
DA:546,1
DA:547,1
DA:548,1
DA:549,7
DA:550,6
DA:552,7
DA:553,6
DA:555,8
DA:556,1
DA:559,3
DA:560,3
DA:561,3
DA:562,3
DA:563,0
DA:565,21
DA:566,18
DA:568,6
DA:569,3
DA:572,80
DA:573,80
DA:574,82
DA:575,2
DA:577,2
DA:579,78
DA:582,78
DA:583,78
DA:584,41
DA:585,41
DA:586,1
DA:588,40
DA:589,6
DA:591,90
DA:592,57
DA:593,57
DA:594,1
DA:597,41
DA:598,70
LF:401
LH:388
end_of_record
TN:
SF:/mnt/c/л3/Lab3OOP/Storage/Storage.hpp
FN:40,43,_ZN7StorageD2Ev
FNDA:0,_ZN7StorageD2Ev
FNF:1
FNH:0
DA:40,0
DA:41,0
DA:42,0
DA:43,0
LF:4
LH:0
end_of_record
